target datalayout = "e-m:e-p270:32:32-p271:32:32-p272:64:64-i64:64-i128:128-f80:128-n8:16:32:64-S128"
target triple = "x86_64-unknown-linux-gnu"

%"class.std::__shared_count" = type { ptr }
%"class.facebook::velox::exec::EvalCtx" = type { ptr, ptr, ptr, i8, i8, %"class.std::vector", %"class.std::shared_ptr", i8, i8, i8, ptr, %"class.std::shared_ptr.0" }
%"class.std::vector" = type { %"struct.std::_Vector_base" }
%"struct.std::_Vector_base" = type { %"struct.std::_Vector_base<std::shared_ptr<facebook::velox::BaseVector>, std::allocator<std::shared_ptr<facebook::velox::BaseVector>>>::_Vector_impl" }
%"struct.std::_Vector_base<std::shared_ptr<facebook::velox::BaseVector>, std::allocator<std::shared_ptr<facebook::velox::BaseVector>>>::_Vector_impl" = type { %"struct.std::_Vector_base<std::shared_ptr<facebook::velox::BaseVector>, std::allocator<std::shared_ptr<facebook::velox::BaseVector>>>::_Vector_impl_data" }
%"struct.std::_Vector_base<std::shared_ptr<facebook::velox::BaseVector>, std::allocator<std::shared_ptr<facebook::velox::BaseVector>>>::_Vector_impl_data" = type { ptr, ptr, ptr }
%"class.std::shared_ptr" = type { %"class.std::__shared_ptr" }
%"class.std::__shared_ptr" = type { ptr, %"class.std::__shared_count" }
%"class.std::shared_ptr.0" = type { %"class.std::__shared_ptr.1" }
%"class.std::__shared_ptr.1" = type { ptr, %"class.std::__shared_count" }
%"class.facebook::velox::exec::ScopedFinalSelectionSetter" = type <{ ptr, ptr, i8, [7 x i8] }>

; Function Attrs: noreturn nounwind uwtable
define linkonce_odr hidden void @__clang_call_terminate(ptr noundef %0) #7 comdat {
  %2 = call ptr @__cxa_begin_catch(ptr %0) #16
  call void @_ZSt9terminatev() #25
  unreachable
}

; Function Attrs: mustprogress nounwind uwtable
define linkonce_odr noundef ptr @_ZN8facebook5velox4exec7EvalCtx23mutableIsFinalSelectionEv(ptr noundef nonnull align 8 dereferenceable(104) %this) #1 comdat align 2 {
entry:
  %this.addr = alloca ptr, align 8
  store ptr %this, ptr %this.addr, align 8
  %this1 = load ptr, ptr %this.addr, align 8
  %isFinalSelection_ = getelementptr inbounds %"class.facebook::velox::exec::EvalCtx", ptr %this1, i32 0, i32 9
  ret ptr %isFinalSelection_
}

; Function Attrs: mustprogress nounwind uwtable
define linkonce_odr noundef ptr @_ZN8facebook5velox4exec7EvalCtx21mutableFinalSelectionEv(ptr noundef nonnull align 8 dereferenceable(104) %this) #1 comdat align 2 {
entry:
  %this.addr = alloca ptr, align 8
  store ptr %this, ptr %this.addr, align 8
  %this1 = load ptr, ptr %this.addr, align 8
  %finalSelection_ = getelementptr inbounds %"class.facebook::velox::exec::EvalCtx", ptr %this1, i32 0, i32 10
  ret ptr %finalSelection_
}

; Function Attrs: mustprogress nounwind uwtable
define void @_ZN8facebook5velox4exec26ScopedFinalSelectionSetterD2Ev(ptr noundef nonnull align 8 dereferenceable(17) %this) unnamed_addr #1 align 2 personality ptr @__gxx_personality_v0 {
entry:
  %this.addr = alloca ptr, align 8
  store ptr %this, ptr %this.addr, align 8
  %this1 = load ptr, ptr %this.addr, align 8
  %oldFinalSelection_ = getelementptr inbounds %"class.facebook::velox::exec::ScopedFinalSelectionSetter", ptr %this1, i32 0, i32 1
  %0 = load ptr, ptr %oldFinalSelection_, align 8
  %evalCtx_ = getelementptr inbounds %"class.facebook::velox::exec::ScopedFinalSelectionSetter", ptr %this1, i32 0, i32 0
  %1 = load ptr, ptr %evalCtx_, align 8
  %call = invoke noundef ptr @_ZN8facebook5velox4exec7EvalCtx21mutableFinalSelectionEv(ptr noundef nonnull align 8 dereferenceable(104) %1)
          to label %invoke.cont unwind label %terminate.lpad

invoke.cont:                                      ; preds = %entry
  store ptr %0, ptr %call, align 8
  %oldIsFinalSelection_ = getelementptr inbounds %"class.facebook::velox::exec::ScopedFinalSelectionSetter", ptr %this1, i32 0, i32 2
  %2 = load i8, ptr %oldIsFinalSelection_, align 8
  %tobool = trunc i8 %2 to i1
  %evalCtx_2 = getelementptr inbounds %"class.facebook::velox::exec::ScopedFinalSelectionSetter", ptr %this1, i32 0, i32 0
  %3 = load ptr, ptr %evalCtx_2, align 8
  %call4 = invoke noundef ptr @_ZN8facebook5velox4exec7EvalCtx23mutableIsFinalSelectionEv(ptr noundef nonnull align 8 dereferenceable(104) %3)
          to label %invoke.cont3 unwind label %terminate.lpad

invoke.cont3:                                     ; preds = %invoke.cont
  %frombool = zext i1 %tobool to i8
  store i8 %frombool, ptr %call4, align 1
  ret void

terminate.lpad:                                   ; preds = %invoke.cont, %entry
  %4 = landingpad { ptr, i32 }
          catch ptr null
  %5 = extractvalue { ptr, i32 } %4, 0
  call void @__clang_call_terminate(ptr %5) #25
  unreachable
}