; Function Attrs: mustprogress nofree norecurse nosync nounwind willreturn memory(write, argmem: readwrite, inaccessiblemem: none) uwtable
define void @_ZN8facebook5velox4exec26ScopedFinalSelectionSetterD2Ev(ptr nocapture noundef nonnull readonly align 8 dereferenceable(17) %this) unnamed_addr #8 align 2 personality ptr @__gxx_personality_v0 {
entry:
  %oldFinalSelection_ = getelementptr inbounds i8, ptr %this, i64 8
  %0 = load ptr, ptr %oldFinalSelection_, align 8
  %1 = load ptr, ptr %this, align 8
  %finalSelection_.i = getelementptr inbounds i8, ptr %1, i64 80
  store ptr %0, ptr %finalSelection_.i, align 8
  %oldIsFinalSelection_ = getelementptr inbounds i8, ptr %this, i64 16
  %2 = load i8, ptr %oldIsFinalSelection_, align 8
  %3 = and i8 %2, 1
  %4 = load ptr, ptr %this, align 8
  %isFinalSelection_.i = getelementptr inbounds i8, ptr %4, i64 74
  store i8 %3, ptr %isFinalSelection_.i, align 1
  ret void
}